target datalayout = "e-m:e-p270:32:32-p271:32:32-p272:64:64-i64:64-i128:128-f80:128-n8:16:32:64-S128"
target triple = "x86_64-unknown-linux-gnu"

%"class.OpenColorIO_v2_4dev::GenericGpuShaderDesc" = type { %"class.OpenColorIO_v2_4dev::GpuShaderDesc", ptr }
%"class.OpenColorIO_v2_4dev::GpuShaderDesc" = type { %"class.OpenColorIO_v2_4dev::GpuShaderCreator" }
%"class.OpenColorIO_v2_4dev::GpuShaderCreator" = type { ptr, ptr }
%"class.OpenColorIO_v2_4dev::GPUShaderImpl::PrivateImpl" = type <{ ptr, %"class.std::vector", %"class.std::vector", %"class.std::vector.0", i32, i8, [3 x i8] }>
%"class.std::vector" = type { %"struct.std::_Vector_base" }
%"struct.std::_Vector_base" = type { %"struct.std::_Vector_base<OpenColorIO_v2_4dev::GPUShaderImpl::PrivateImpl::Texture, std::allocator<OpenColorIO_v2_4dev::GPUShaderImpl::PrivateImpl::Texture>>::_Vector_impl" }
%"struct.std::_Vector_base<OpenColorIO_v2_4dev::GPUShaderImpl::PrivateImpl::Texture, std::allocator<OpenColorIO_v2_4dev::GPUShaderImpl::PrivateImpl::Texture>>::_Vector_impl" = type { %"struct.std::_Vector_base<OpenColorIO_v2_4dev::GPUShaderImpl::PrivateImpl::Texture, std::allocator<OpenColorIO_v2_4dev::GPUShaderImpl::PrivateImpl::Texture>>::_Vector_impl_data" }
%"struct.std::_Vector_base<OpenColorIO_v2_4dev::GPUShaderImpl::PrivateImpl::Texture, std::allocator<OpenColorIO_v2_4dev::GPUShaderImpl::PrivateImpl::Texture>>::_Vector_impl_data" = type { ptr, ptr, ptr }
%"class.std::vector.0" = type { %"struct.std::_Vector_base.1" }
%"struct.std::_Vector_base.1" = type { %"struct.std::_Vector_base<OpenColorIO_v2_4dev::GPUShaderImpl::PrivateImpl::Uniform, std::allocator<OpenColorIO_v2_4dev::GPUShaderImpl::PrivateImpl::Uniform>>::_Vector_impl" }
%"struct.std::_Vector_base<OpenColorIO_v2_4dev::GPUShaderImpl::PrivateImpl::Uniform, std::allocator<OpenColorIO_v2_4dev::GPUShaderImpl::PrivateImpl::Uniform>>::_Vector_impl" = type { %"struct.std::_Vector_base<OpenColorIO_v2_4dev::GPUShaderImpl::PrivateImpl::Uniform, std::allocator<OpenColorIO_v2_4dev::GPUShaderImpl::PrivateImpl::Uniform>>::_Vector_impl_data" }
%"struct.std::_Vector_base<OpenColorIO_v2_4dev::GPUShaderImpl::PrivateImpl::Uniform, std::allocator<OpenColorIO_v2_4dev::GPUShaderImpl::PrivateImpl::Uniform>>::_Vector_impl_data" = type { ptr, ptr, ptr }

; Function Attrs: mustprogress nounwind uwtable
define linkonce_odr hidden void @_ZN19OpenColorIO_v2_4dev13GPUShaderImpl11PrivateImpl17setAllowTexture1DEb(ptr noundef nonnull align 8 dereferenceable(85) %this, i1 noundef zeroext %allowed) #7 comdat align 2 {
entry:
  %this.addr = alloca ptr, align 8
  %allowed.addr = alloca i8, align 1
  store ptr %this, ptr %this.addr, align 8
  %frombool = zext i1 %allowed to i8
  store i8 %frombool, ptr %allowed.addr, align 1
  %this1 = load ptr, ptr %this.addr, align 8
  %0 = load i8, ptr %allowed.addr, align 1
  %tobool = trunc i8 %0 to i1
  %m_allowTexture1D = getelementptr inbounds %"class.OpenColorIO_v2_4dev::GPUShaderImpl::PrivateImpl", ptr %this1, i32 0, i32 5
  %frombool2 = zext i1 %tobool to i8
  store i8 %frombool2, ptr %m_allowTexture1D, align 4
  ret void
}

; Function Attrs: mustprogress nounwind uwtable
define linkonce_odr hidden noundef ptr @_ZN19OpenColorIO_v2_4dev20GenericGpuShaderDesc14getImplGenericEv(ptr noundef nonnull align 8 dereferenceable(24) %this) #7 comdat align 2 {
entry:
  %this.addr = alloca ptr, align 8
  store ptr %this, ptr %this.addr, align 8
  %this1 = load ptr, ptr %this.addr, align 8
  %m_implGeneric = getelementptr inbounds %"class.OpenColorIO_v2_4dev::GenericGpuShaderDesc", ptr %this1, i32 0, i32 1
  %0 = load ptr, ptr %m_implGeneric, align 8
  ret ptr %0
}

; Function Attrs: mustprogress uwtable
define hidden void @_ZN19OpenColorIO_v2_4dev20GenericGpuShaderDesc17setAllowTexture1DEb(ptr noundef nonnull align 8 dereferenceable(24) %this, i1 noundef zeroext %allowed) unnamed_addr #4 align 2 {
entry:
  %this.addr = alloca ptr, align 8
  %allowed.addr = alloca i8, align 1
  store ptr %this, ptr %this.addr, align 8
  %frombool = zext i1 %allowed to i8
  store i8 %frombool, ptr %allowed.addr, align 1
  %this1 = load ptr, ptr %this.addr, align 8
  %call = call noundef ptr @_ZN19OpenColorIO_v2_4dev20GenericGpuShaderDesc14getImplGenericEv(ptr noundef nonnull align 8 dereferenceable(24) %this1)
  %0 = load i8, ptr %allowed.addr, align 1
  %tobool = trunc i8 %0 to i1
  call void @_ZN19OpenColorIO_v2_4dev13GPUShaderImpl11PrivateImpl17setAllowTexture1DEb(ptr noundef nonnull align 8 dereferenceable(85) %call, i1 noundef zeroext %tobool)
  ret void
}