; Function Attrs: mustprogress nofree norecurse nosync nounwind willreturn memory(write, argmem: readwrite, inaccessiblemem: none) uwtable
define hidden void @_ZN19OpenColorIO_v2_4dev20GenericGpuShaderDesc17setAllowTexture1DEb(ptr nocapture noundef nonnull readonly align 8 dereferenceable(24) %this, i1 noundef zeroext %allowed) unnamed_addr #9 align 2 {
entry:
  %m_implGeneric.i = getelementptr inbounds i8, ptr %this, i64 16
  %0 = load ptr, ptr %m_implGeneric.i, align 8
  %frombool.i = zext i1 %allowed to i8
  %m_allowTexture1D.i = getelementptr inbounds i8, ptr %0, i64 84
  store i8 %frombool.i, ptr %m_allowTexture1D.i, align 4
  ret void
}